target datalayout = "e-m:e-p270:32:32-p271:32:32-p272:64:64-i64:64-i128:128-f80:128-n8:16:32:64-S128"
target triple = "x86_64-pc-linux-gnu"

%"struct.faiss::IndexScalarQuantizer" = type { %"struct.faiss::IndexFlatCodes", %"struct.faiss::ScalarQuantizer" }
%"struct.faiss::IndexFlatCodes" = type { %"struct.faiss::Index.base", i64, %"class.std::vector" }
%"struct.faiss::Index.base" = type <{ ptr, i32, [4 x i8], i64, i8, i8, [2 x i8], i32, float }>
%"class.std::vector" = type { %"struct.std::_Vector_base" }
%"struct.std::_Vector_base" = type { %"struct.std::_Vector_base<unsigned char, std::allocator<unsigned char>>::_Vector_impl" }
%"struct.std::_Vector_base<unsigned char, std::allocator<unsigned char>>::_Vector_impl" = type { %"struct.std::_Vector_base<unsigned char, std::allocator<unsigned char>>::_Vector_impl_data" }
%"struct.std::_Vector_base<unsigned char, std::allocator<unsigned char>>::_Vector_impl_data" = type { ptr, ptr, ptr }
%"struct.faiss::ScalarQuantizer" = type { %"struct.faiss::Quantizer", i32, i32, float, i64, %"class.std::vector.0" }
%"struct.faiss::Quantizer" = type { ptr, i64, i64 }
%"class.std::vector.0" = type { %"struct.std::_Vector_base.1" }
%"struct.std::_Vector_base.1" = type { %"struct.std::_Vector_base<float, std::allocator<float>>::_Vector_impl" }
%"struct.std::_Vector_base<float, std::allocator<float>>::_Vector_impl" = type { %"struct.std::_Vector_base<float, std::allocator<float>>::_Vector_impl_data" }
%"struct.std::_Vector_base<float, std::allocator<float>>::_Vector_impl_data" = type { ptr, ptr, ptr }
%"struct.faiss::Index" = type <{ ptr, i32, [4 x i8], i64, i8, i8, [2 x i8], i32, float, [4 x i8] }>

; Function Attrs: mustprogress uwtable
define void @_ZN5faiss20IndexScalarQuantizerC2EiNS_15ScalarQuantizer13QuantizerTypeENS_10MetricTypeE(ptr noundef nonnull align 8 dereferenceable(144) %0, i32 noundef %1, i32 noundef %2, i32 noundef %3) unnamed_addr #1 align 2 personality ptr @__gxx_personality_v0 {
  %5 = alloca ptr, align 8
  %6 = alloca i32, align 4
  %7 = alloca i32, align 4
  %8 = alloca i32, align 4
  %9 = alloca ptr, align 8
  %10 = alloca i32, align 4
  store ptr %0, ptr %5, align 8
  store i32 %1, ptr %6, align 4
  store i32 %2, ptr %7, align 4
  store i32 %3, ptr %8, align 4
  %11 = load ptr, ptr %5, align 8
  %12 = load i32, ptr %6, align 4
  %13 = sext i32 %12 to i64
  %14 = load i32, ptr %8, align 4
  call void @_ZN5faiss14IndexFlatCodesC2EmlNS_10MetricTypeE(ptr noundef nonnull align 8 dereferenceable(72) %11, i64 noundef 0, i64 noundef %13, i32 noundef %14)
  store ptr getelementptr inbounds ({ [25 x ptr] }, ptr @_ZTVN5faiss20IndexScalarQuantizerE, i32 0, i32 0, i32 2), ptr %11, align 8
  %15 = getelementptr inbounds %"struct.faiss::IndexScalarQuantizer", ptr %11, i32 0, i32 1
  %16 = load i32, ptr %6, align 4
  %17 = sext i32 %16 to i64
  %18 = load i32, ptr %7, align 4
  invoke void @_ZN5faiss15ScalarQuantizerC1EmNS0_13QuantizerTypeE(ptr noundef nonnull align 8 dereferenceable(72) %15, i64 noundef %17, i32 noundef %18)
          to label %19 unwind label %33

19:                                               ; preds = %4
  %20 = load i32, ptr %7, align 4
  %21 = icmp eq i32 %20, 4
  br i1 %21, label %25, label %22

22:                                               ; preds = %19
  %23 = load i32, ptr %7, align 4
  %24 = icmp eq i32 %23, 5
  br label %25

25:                                               ; preds = %22, %19
  %26 = phi i1 [ true, %19 ], [ %24, %22 ]
  %27 = getelementptr inbounds %"struct.faiss::Index", ptr %11, i32 0, i32 5
  %28 = zext i1 %26 to i8
  store i8 %28, ptr %27, align 1
  %29 = getelementptr inbounds %"struct.faiss::IndexScalarQuantizer", ptr %11, i32 0, i32 1
  %30 = getelementptr inbounds %"struct.faiss::Quantizer", ptr %29, i32 0, i32 2
  %31 = load i64, ptr %30, align 8
  %32 = getelementptr inbounds %"struct.faiss::IndexFlatCodes", ptr %11, i32 0, i32 1
  store i64 %31, ptr %32, align 8
  ret void

33:                                               ; preds = %4
  %34 = landingpad { ptr, i32 }
          cleanup
  %35 = extractvalue { ptr, i32 } %34, 0
  store ptr %35, ptr %9, align 8
  %36 = extractvalue { ptr, i32 } %34, 1
  store i32 %36, ptr %10, align 4
  call void @_ZN5faiss14IndexFlatCodesD2Ev(ptr noundef nonnull align 8 dereferenceable(72) %11) #8
  br label %37

37:                                               ; preds = %33
  %38 = load ptr, ptr %9, align 8
  %39 = load i32, ptr %10, align 4
  %40 = insertvalue { ptr, i32 } poison, ptr %38, 0
  %41 = insertvalue { ptr, i32 } %40, i32 %39, 1
  resume { ptr, i32 } %41
}

; Function Attrs: mustprogress uwtable
define void @_ZN5faiss20IndexScalarQuantizerC2Ev(ptr noundef nonnull align 8 dereferenceable(144) %0) unnamed_addr #1 align 2 {
  %2 = alloca ptr, align 8
  store ptr %0, ptr %2, align 8
  %3 = load ptr, ptr %2, align 8
  call void @_ZN5faiss20IndexScalarQuantizerC2EiNS_15ScalarQuantizer13QuantizerTypeENS_10MetricTypeE(ptr noundef nonnull align 8 dereferenceable(144) %3, i32 noundef 0, i32 noundef 0, i32 noundef 1)
  ret void
}