; Function Attrs: mustprogress uwtable
define void @_ZN5faiss20IndexScalarQuantizerC2Ev(ptr noundef nonnull align 8 dereferenceable(144) %0) unnamed_addr #1 align 2 personality ptr @__gxx_personality_v0 {
  tail call void @_ZN5faiss14IndexFlatCodesC2EmlNS_10MetricTypeE(ptr noundef nonnull align 8 dereferenceable(72) %0, i64 noundef 0, i64 noundef 0, i32 noundef 1)
  store ptr getelementptr inbounds ({ [25 x ptr] }, ptr @_ZTVN5faiss20IndexScalarQuantizerE, i64 0, i32 0, i64 2), ptr %0, align 8
  %2 = getelementptr inbounds i8, ptr %0, i64 72
  invoke void @_ZN5faiss15ScalarQuantizerC1EmNS0_13QuantizerTypeE(ptr noundef nonnull align 8 dereferenceable(72) %2, i64 noundef 0, i32 noundef 0)
          to label %_ZN5faiss20IndexScalarQuantizerC2EiNS_15ScalarQuantizer13QuantizerTypeENS_10MetricTypeE.exit unwind label %3

3:                                                ; preds = %1
  %4 = landingpad { ptr, i32 }
          cleanup
  tail call void @_ZN5faiss14IndexFlatCodesD2Ev(ptr noundef nonnull align 8 dereferenceable(72) %0) #10
  resume { ptr, i32 } %4

_ZN5faiss20IndexScalarQuantizerC2EiNS_15ScalarQuantizer13QuantizerTypeENS_10MetricTypeE.exit: ; preds = %1
  %5 = getelementptr inbounds i8, ptr %0, i64 25
  store i8 0, ptr %5, align 1
  %6 = getelementptr inbounds i8, ptr %0, i64 88
  %7 = load i64, ptr %6, align 8
  %8 = getelementptr inbounds i8, ptr %0, i64 40
  store i64 %7, ptr %8, align 8
  ret void
}